
03.TIMER_CONTROL.elf:     file format elf32-avr

Sections:
Idx Name          Size      VMA       LMA       File off  Algn
  0 .data         0000000c  00800100  0000052e  000005c2  2**0
                  CONTENTS, ALLOC, LOAD, DATA
  1 .text         0000052e  00000000  00000000  00000094  2**1
                  CONTENTS, ALLOC, LOAD, READONLY, CODE
  2 .bss          00000012  0080010c  0080010c  000005ce  2**0
                  ALLOC
  3 .comment      00000030  00000000  00000000  000005ce  2**0
                  CONTENTS, READONLY
  4 .note.gnu.avr.deviceinfo 00000040  00000000  00000000  00000600  2**2
                  CONTENTS, READONLY
  5 .debug_aranges 00000098  00000000  00000000  00000640  2**0
                  CONTENTS, READONLY, DEBUGGING
  6 .debug_info   00000ac2  00000000  00000000  000006d8  2**0
                  CONTENTS, READONLY, DEBUGGING
  7 .debug_abbrev 000008e4  00000000  00000000  0000119a  2**0
                  CONTENTS, READONLY, DEBUGGING
  8 .debug_line   000004a6  00000000  00000000  00001a7e  2**0
                  CONTENTS, READONLY, DEBUGGING
  9 .debug_frame  00000118  00000000  00000000  00001f24  2**2
                  CONTENTS, READONLY, DEBUGGING
 10 .debug_str    0000049d  00000000  00000000  0000203c  2**0
                  CONTENTS, READONLY, DEBUGGING
 11 .debug_loc    00000063  00000000  00000000  000024d9  2**0
                  CONTENTS, READONLY, DEBUGGING
 12 .debug_ranges 00000078  00000000  00000000  0000253c  2**0
                  CONTENTS, READONLY, DEBUGGING

Disassembly of section .text:

00000000 <__vectors>:
   0:	45 c0       	rjmp	.+138    	; 0x8c <__ctors_end>
   2:	00 00       	nop
   4:	60 c0       	rjmp	.+192    	; 0xc6 <__bad_interrupt>
   6:	00 00       	nop
   8:	5e c0       	rjmp	.+188    	; 0xc6 <__bad_interrupt>
   a:	00 00       	nop
   c:	5c c0       	rjmp	.+184    	; 0xc6 <__bad_interrupt>
   e:	00 00       	nop
  10:	5a c0       	rjmp	.+180    	; 0xc6 <__bad_interrupt>
  12:	00 00       	nop
  14:	58 c0       	rjmp	.+176    	; 0xc6 <__bad_interrupt>
  16:	00 00       	nop
  18:	56 c0       	rjmp	.+172    	; 0xc6 <__bad_interrupt>
  1a:	00 00       	nop
  1c:	54 c0       	rjmp	.+168    	; 0xc6 <__bad_interrupt>
  1e:	00 00       	nop
  20:	52 c0       	rjmp	.+164    	; 0xc6 <__bad_interrupt>
  22:	00 00       	nop
  24:	50 c0       	rjmp	.+160    	; 0xc6 <__bad_interrupt>
  26:	00 00       	nop
  28:	4e c0       	rjmp	.+156    	; 0xc6 <__bad_interrupt>
  2a:	00 00       	nop
  2c:	4c c0       	rjmp	.+152    	; 0xc6 <__bad_interrupt>
  2e:	00 00       	nop
  30:	4a c0       	rjmp	.+148    	; 0xc6 <__bad_interrupt>
  32:	00 00       	nop
  34:	48 c0       	rjmp	.+144    	; 0xc6 <__bad_interrupt>
  36:	00 00       	nop
  38:	46 c0       	rjmp	.+140    	; 0xc6 <__bad_interrupt>
  3a:	00 00       	nop
  3c:	44 c0       	rjmp	.+136    	; 0xc6 <__bad_interrupt>
  3e:	00 00       	nop
  40:	16 c2       	rjmp	.+1068   	; 0x46e <__vector_16>
  42:	00 00       	nop
  44:	40 c0       	rjmp	.+128    	; 0xc6 <__bad_interrupt>
  46:	00 00       	nop
  48:	3e c0       	rjmp	.+124    	; 0xc6 <__bad_interrupt>
  4a:	00 00       	nop
  4c:	3c c0       	rjmp	.+120    	; 0xc6 <__bad_interrupt>
  4e:	00 00       	nop
  50:	3a c0       	rjmp	.+116    	; 0xc6 <__bad_interrupt>
  52:	00 00       	nop
  54:	38 c0       	rjmp	.+112    	; 0xc6 <__bad_interrupt>
  56:	00 00       	nop
  58:	36 c0       	rjmp	.+108    	; 0xc6 <__bad_interrupt>
  5a:	00 00       	nop
  5c:	34 c0       	rjmp	.+104    	; 0xc6 <__bad_interrupt>
  5e:	00 00       	nop
  60:	32 c0       	rjmp	.+100    	; 0xc6 <__bad_interrupt>
  62:	00 00       	nop
  64:	30 c0       	rjmp	.+96     	; 0xc6 <__bad_interrupt>
  66:	00 00       	nop
  68:	2e c0       	rjmp	.+92     	; 0xc6 <__bad_interrupt>
  6a:	00 00       	nop
  6c:	2c c0       	rjmp	.+88     	; 0xc6 <__bad_interrupt>
  6e:	00 00       	nop
  70:	2a c0       	rjmp	.+84     	; 0xc6 <__bad_interrupt>
  72:	00 00       	nop
  74:	28 c0       	rjmp	.+80     	; 0xc6 <__bad_interrupt>
  76:	00 00       	nop
  78:	26 c0       	rjmp	.+76     	; 0xc6 <__bad_interrupt>
  7a:	00 00       	nop
  7c:	24 c0       	rjmp	.+72     	; 0xc6 <__bad_interrupt>
  7e:	00 00       	nop
  80:	22 c0       	rjmp	.+68     	; 0xc6 <__bad_interrupt>
  82:	00 00       	nop
  84:	20 c0       	rjmp	.+64     	; 0xc6 <__bad_interrupt>
  86:	00 00       	nop
  88:	1e c0       	rjmp	.+60     	; 0xc6 <__bad_interrupt>
	...

0000008c <__ctors_end>:
  8c:	11 24       	eor	r1, r1
  8e:	1f be       	out	0x3f, r1	; 63
  90:	cf ef       	ldi	r28, 0xFF	; 255
  92:	d0 e1       	ldi	r29, 0x10	; 16
  94:	de bf       	out	0x3e, r29	; 62
  96:	cd bf       	out	0x3d, r28	; 61

00000098 <__do_copy_data>:
  98:	11 e0       	ldi	r17, 0x01	; 1
  9a:	a0 e0       	ldi	r26, 0x00	; 0
  9c:	b1 e0       	ldi	r27, 0x01	; 1
  9e:	ee e2       	ldi	r30, 0x2E	; 46
  a0:	f5 e0       	ldi	r31, 0x05	; 5
  a2:	00 e0       	ldi	r16, 0x00	; 0
  a4:	0b bf       	out	0x3b, r16	; 59
  a6:	02 c0       	rjmp	.+4      	; 0xac <__do_copy_data+0x14>
  a8:	07 90       	elpm	r0, Z+
  aa:	0d 92       	st	X+, r0
  ac:	ac 30       	cpi	r26, 0x0C	; 12
  ae:	b1 07       	cpc	r27, r17
  b0:	d9 f7       	brne	.-10     	; 0xa8 <__do_copy_data+0x10>

000000b2 <__do_clear_bss>:
  b2:	21 e0       	ldi	r18, 0x01	; 1
  b4:	ac e0       	ldi	r26, 0x0C	; 12
  b6:	b1 e0       	ldi	r27, 0x01	; 1
  b8:	01 c0       	rjmp	.+2      	; 0xbc <.do_clear_bss_start>

000000ba <.do_clear_bss_loop>:
  ba:	1d 92       	st	X+, r1

000000bc <.do_clear_bss_start>:
  bc:	ae 31       	cpi	r26, 0x1E	; 30
  be:	b2 07       	cpc	r27, r18
  c0:	e1 f7       	brne	.-8      	; 0xba <.do_clear_bss_loop>
  c2:	09 d2       	rcall	.+1042   	; 0x4d6 <main>
  c4:	32 c2       	rjmp	.+1124   	; 0x52a <_exit>

000000c6 <__bad_interrupt>:
  c6:	9c cf       	rjmp	.-200    	; 0x0 <__vectors>

000000c8 <led_shift_left_on>:
	PORTA=0x00;  // PORTA에 물려있는 led를 all off
}

void led_all_on(void)
{
	PORTA=0xff;
  c8:	80 91 1a 01 	lds	r24, 0x011A	; 0x80011a <msec_count>
  cc:	90 91 1b 01 	lds	r25, 0x011B	; 0x80011b <msec_count+0x1>
  d0:	a0 91 1c 01 	lds	r26, 0x011C	; 0x80011c <msec_count+0x2>
  d4:	b0 91 1d 01 	lds	r27, 0x011D	; 0x80011d <msec_count+0x3>
  d8:	84 36       	cpi	r24, 0x64	; 100
  da:	91 05       	cpc	r25, r1
  dc:	a1 05       	cpc	r26, r1
  de:	b1 05       	cpc	r27, r1
  e0:	88 f1       	brcs	.+98     	; 0x144 <led_shift_left_on+0x7c>
  e2:	10 92 1a 01 	sts	0x011A, r1	; 0x80011a <msec_count>
  e6:	10 92 1b 01 	sts	0x011B, r1	; 0x80011b <msec_count+0x1>
  ea:	10 92 1c 01 	sts	0x011C, r1	; 0x80011c <msec_count+0x2>
  ee:	10 92 1d 01 	sts	0x011D, r1	; 0x80011d <msec_count+0x3>
  f2:	81 e0       	ldi	r24, 0x01	; 1
  f4:	90 e0       	ldi	r25, 0x00	; 0
  f6:	00 90 16 01 	lds	r0, 0x0116	; 0x800116 <i.1769>
  fa:	02 c0       	rjmp	.+4      	; 0x100 <led_shift_left_on+0x38>
  fc:	88 0f       	add	r24, r24
  fe:	99 1f       	adc	r25, r25
 100:	0a 94       	dec	r0
 102:	e2 f7       	brpl	.-8      	; 0xfc <led_shift_left_on+0x34>
 104:	8b bb       	out	0x1b, r24	; 27
 106:	80 91 16 01 	lds	r24, 0x0116	; 0x800116 <i.1769>
 10a:	90 91 17 01 	lds	r25, 0x0117	; 0x800117 <i.1769+0x1>
 10e:	01 96       	adiw	r24, 0x01	; 1
 110:	87 70       	andi	r24, 0x07	; 7
 112:	90 78       	andi	r25, 0x80	; 128
 114:	99 23       	and	r25, r25
 116:	24 f4       	brge	.+8      	; 0x120 <led_shift_left_on+0x58>
 118:	01 97       	sbiw	r24, 0x01	; 1
 11a:	88 6f       	ori	r24, 0xF8	; 248
 11c:	9f 6f       	ori	r25, 0xFF	; 255
 11e:	01 96       	adiw	r24, 0x01	; 1
 120:	90 93 17 01 	sts	0x0117, r25	; 0x800117 <i.1769+0x1>
 124:	80 93 16 01 	sts	0x0116, r24	; 0x800116 <i.1769>
 128:	89 2b       	or	r24, r25
 12a:	61 f4       	brne	.+24     	; 0x144 <led_shift_left_on+0x7c>
 12c:	80 91 18 01 	lds	r24, 0x0118	; 0x800118 <func_state>
 130:	90 91 19 01 	lds	r25, 0x0119	; 0x800119 <func_state+0x1>
 134:	01 96       	adiw	r24, 0x01	; 1
 136:	66 e0       	ldi	r22, 0x06	; 6
 138:	70 e0       	ldi	r23, 0x00	; 0
 13a:	d0 d1       	rcall	.+928    	; 0x4dc <__divmodhi4>
 13c:	90 93 19 01 	sts	0x0119, r25	; 0x800119 <func_state+0x1>
 140:	80 93 18 01 	sts	0x0118, r24	; 0x800118 <func_state>
 144:	08 95       	ret

00000146 <led_shift_right_on>:
 146:	80 91 1a 01 	lds	r24, 0x011A	; 0x80011a <msec_count>
 14a:	90 91 1b 01 	lds	r25, 0x011B	; 0x80011b <msec_count+0x1>
 14e:	a0 91 1c 01 	lds	r26, 0x011C	; 0x80011c <msec_count+0x2>
 152:	b0 91 1d 01 	lds	r27, 0x011D	; 0x80011d <msec_count+0x3>
 156:	84 36       	cpi	r24, 0x64	; 100
 158:	91 05       	cpc	r25, r1
 15a:	a1 05       	cpc	r26, r1
 15c:	b1 05       	cpc	r27, r1
 15e:	88 f1       	brcs	.+98     	; 0x1c2 <led_shift_right_on+0x7c>
 160:	10 92 1a 01 	sts	0x011A, r1	; 0x80011a <msec_count>
 164:	10 92 1b 01 	sts	0x011B, r1	; 0x80011b <msec_count+0x1>
 168:	10 92 1c 01 	sts	0x011C, r1	; 0x80011c <msec_count+0x2>
 16c:	10 92 1d 01 	sts	0x011D, r1	; 0x80011d <msec_count+0x3>
 170:	80 e8       	ldi	r24, 0x80	; 128
 172:	90 e0       	ldi	r25, 0x00	; 0
 174:	00 90 14 01 	lds	r0, 0x0114	; 0x800114 <i.1773>
 178:	02 c0       	rjmp	.+4      	; 0x17e <led_shift_right_on+0x38>
 17a:	95 95       	asr	r25
 17c:	87 95       	ror	r24
 17e:	0a 94       	dec	r0
 180:	e2 f7       	brpl	.-8      	; 0x17a <led_shift_right_on+0x34>
 182:	8b bb       	out	0x1b, r24	; 27
 184:	80 91 14 01 	lds	r24, 0x0114	; 0x800114 <i.1773>
 188:	90 91 15 01 	lds	r25, 0x0115	; 0x800115 <i.1773+0x1>
 18c:	01 96       	adiw	r24, 0x01	; 1
 18e:	87 70       	andi	r24, 0x07	; 7
 190:	90 78       	andi	r25, 0x80	; 128
 192:	99 23       	and	r25, r25
 194:	24 f4       	brge	.+8      	; 0x19e <led_shift_right_on+0x58>
 196:	01 97       	sbiw	r24, 0x01	; 1
 198:	88 6f       	ori	r24, 0xF8	; 248
 19a:	9f 6f       	ori	r25, 0xFF	; 255
 19c:	01 96       	adiw	r24, 0x01	; 1
 19e:	90 93 15 01 	sts	0x0115, r25	; 0x800115 <i.1773+0x1>
 1a2:	80 93 14 01 	sts	0x0114, r24	; 0x800114 <i.1773>
 1a6:	89 2b       	or	r24, r25
 1a8:	61 f4       	brne	.+24     	; 0x1c2 <led_shift_right_on+0x7c>
 1aa:	80 91 18 01 	lds	r24, 0x0118	; 0x800118 <func_state>
 1ae:	90 91 19 01 	lds	r25, 0x0119	; 0x800119 <func_state+0x1>
 1b2:	01 96       	adiw	r24, 0x01	; 1
 1b4:	66 e0       	ldi	r22, 0x06	; 6
 1b6:	70 e0       	ldi	r23, 0x00	; 0
 1b8:	91 d1       	rcall	.+802    	; 0x4dc <__divmodhi4>
 1ba:	90 93 19 01 	sts	0x0119, r25	; 0x800119 <func_state+0x1>
 1be:	80 93 18 01 	sts	0x0118, r24	; 0x800118 <func_state>
 1c2:	08 95       	ret

000001c4 <led_shift_left_keep_on>:
 1c4:	80 91 1a 01 	lds	r24, 0x011A	; 0x80011a <msec_count>
 1c8:	90 91 1b 01 	lds	r25, 0x011B	; 0x80011b <msec_count+0x1>
 1cc:	a0 91 1c 01 	lds	r26, 0x011C	; 0x80011c <msec_count+0x2>
 1d0:	b0 91 1d 01 	lds	r27, 0x011D	; 0x80011d <msec_count+0x3>
 1d4:	84 36       	cpi	r24, 0x64	; 100
 1d6:	91 05       	cpc	r25, r1
 1d8:	a1 05       	cpc	r26, r1
 1da:	b1 05       	cpc	r27, r1
 1dc:	b8 f1       	brcs	.+110    	; 0x24c <led_shift_left_keep_on+0x88>
 1de:	8b b3       	in	r24, 0x1b	; 27
 1e0:	8f 3f       	cpi	r24, 0xFF	; 255
 1e2:	09 f4       	brne	.+2      	; 0x1e6 <led_shift_left_keep_on+0x22>
 1e4:	1b ba       	out	0x1b, r1	; 27
 1e6:	10 92 1a 01 	sts	0x011A, r1	; 0x80011a <msec_count>
 1ea:	10 92 1b 01 	sts	0x011B, r1	; 0x80011b <msec_count+0x1>
 1ee:	10 92 1c 01 	sts	0x011C, r1	; 0x80011c <msec_count+0x2>
 1f2:	10 92 1d 01 	sts	0x011D, r1	; 0x80011d <msec_count+0x3>
 1f6:	2b b3       	in	r18, 0x1b	; 27
 1f8:	81 e0       	ldi	r24, 0x01	; 1
 1fa:	90 e0       	ldi	r25, 0x00	; 0
 1fc:	00 90 12 01 	lds	r0, 0x0112	; 0x800112 <i.1777>
 200:	02 c0       	rjmp	.+4      	; 0x206 <led_shift_left_keep_on+0x42>
 202:	88 0f       	add	r24, r24
 204:	99 1f       	adc	r25, r25
 206:	0a 94       	dec	r0
 208:	e2 f7       	brpl	.-8      	; 0x202 <led_shift_left_keep_on+0x3e>
 20a:	82 2b       	or	r24, r18
 20c:	8b bb       	out	0x1b, r24	; 27
 20e:	80 91 12 01 	lds	r24, 0x0112	; 0x800112 <i.1777>
 212:	90 91 13 01 	lds	r25, 0x0113	; 0x800113 <i.1777+0x1>
 216:	01 96       	adiw	r24, 0x01	; 1
 218:	87 70       	andi	r24, 0x07	; 7
 21a:	90 78       	andi	r25, 0x80	; 128
 21c:	99 23       	and	r25, r25
 21e:	24 f4       	brge	.+8      	; 0x228 <led_shift_left_keep_on+0x64>
 220:	01 97       	sbiw	r24, 0x01	; 1
 222:	88 6f       	ori	r24, 0xF8	; 248
 224:	9f 6f       	ori	r25, 0xFF	; 255
 226:	01 96       	adiw	r24, 0x01	; 1
 228:	90 93 13 01 	sts	0x0113, r25	; 0x800113 <i.1777+0x1>
 22c:	80 93 12 01 	sts	0x0112, r24	; 0x800112 <i.1777>
 230:	89 2b       	or	r24, r25
 232:	61 f4       	brne	.+24     	; 0x24c <led_shift_left_keep_on+0x88>
 234:	80 91 18 01 	lds	r24, 0x0118	; 0x800118 <func_state>
 238:	90 91 19 01 	lds	r25, 0x0119	; 0x800119 <func_state+0x1>
 23c:	01 96       	adiw	r24, 0x01	; 1
 23e:	66 e0       	ldi	r22, 0x06	; 6
 240:	70 e0       	ldi	r23, 0x00	; 0
 242:	4c d1       	rcall	.+664    	; 0x4dc <__divmodhi4>
 244:	90 93 19 01 	sts	0x0119, r25	; 0x800119 <func_state+0x1>
 248:	80 93 18 01 	sts	0x0118, r24	; 0x800118 <func_state>
 24c:	08 95       	ret

0000024e <led_shift_right_keep_on>:
 24e:	80 91 1a 01 	lds	r24, 0x011A	; 0x80011a <msec_count>
 252:	90 91 1b 01 	lds	r25, 0x011B	; 0x80011b <msec_count+0x1>
 256:	a0 91 1c 01 	lds	r26, 0x011C	; 0x80011c <msec_count+0x2>
 25a:	b0 91 1d 01 	lds	r27, 0x011D	; 0x80011d <msec_count+0x3>
 25e:	84 36       	cpi	r24, 0x64	; 100
 260:	91 05       	cpc	r25, r1
 262:	a1 05       	cpc	r26, r1
 264:	b1 05       	cpc	r27, r1
 266:	e8 f1       	brcs	.+122    	; 0x2e2 <led_shift_right_keep_on+0x94>
 268:	8b b3       	in	r24, 0x1b	; 27
 26a:	8f 3f       	cpi	r24, 0xFF	; 255
 26c:	09 f4       	brne	.+2      	; 0x270 <led_shift_right_keep_on+0x22>
 26e:	1b ba       	out	0x1b, r1	; 27
 270:	10 92 1a 01 	sts	0x011A, r1	; 0x80011a <msec_count>
 274:	10 92 1b 01 	sts	0x011B, r1	; 0x80011b <msec_count+0x1>
 278:	10 92 1c 01 	sts	0x011C, r1	; 0x80011c <msec_count+0x2>
 27c:	10 92 1d 01 	sts	0x011D, r1	; 0x80011d <msec_count+0x3>
 280:	4b b3       	in	r20, 0x1b	; 27
 282:	80 91 10 01 	lds	r24, 0x0110	; 0x800110 <i.1781>
 286:	90 91 11 01 	lds	r25, 0x0111	; 0x800111 <i.1781+0x1>
 28a:	27 e0       	ldi	r18, 0x07	; 7
 28c:	30 e0       	ldi	r19, 0x00	; 0
 28e:	28 1b       	sub	r18, r24
 290:	39 0b       	sbc	r19, r25
 292:	81 e0       	ldi	r24, 0x01	; 1
 294:	90 e0       	ldi	r25, 0x00	; 0
 296:	02 c0       	rjmp	.+4      	; 0x29c <led_shift_right_keep_on+0x4e>
 298:	88 0f       	add	r24, r24
 29a:	99 1f       	adc	r25, r25
 29c:	2a 95       	dec	r18
 29e:	e2 f7       	brpl	.-8      	; 0x298 <led_shift_right_keep_on+0x4a>
 2a0:	84 2b       	or	r24, r20
 2a2:	8b bb       	out	0x1b, r24	; 27
 2a4:	80 91 10 01 	lds	r24, 0x0110	; 0x800110 <i.1781>
 2a8:	90 91 11 01 	lds	r25, 0x0111	; 0x800111 <i.1781+0x1>
 2ac:	01 96       	adiw	r24, 0x01	; 1
 2ae:	87 70       	andi	r24, 0x07	; 7
 2b0:	90 78       	andi	r25, 0x80	; 128
 2b2:	99 23       	and	r25, r25
 2b4:	24 f4       	brge	.+8      	; 0x2be <led_shift_right_keep_on+0x70>
 2b6:	01 97       	sbiw	r24, 0x01	; 1
 2b8:	88 6f       	ori	r24, 0xF8	; 248
 2ba:	9f 6f       	ori	r25, 0xFF	; 255
 2bc:	01 96       	adiw	r24, 0x01	; 1
 2be:	90 93 11 01 	sts	0x0111, r25	; 0x800111 <i.1781+0x1>
 2c2:	80 93 10 01 	sts	0x0110, r24	; 0x800110 <i.1781>
 2c6:	89 2b       	or	r24, r25
 2c8:	61 f4       	brne	.+24     	; 0x2e2 <led_shift_right_keep_on+0x94>
 2ca:	80 91 18 01 	lds	r24, 0x0118	; 0x800118 <func_state>
 2ce:	90 91 19 01 	lds	r25, 0x0119	; 0x800119 <func_state+0x1>
 2d2:	01 96       	adiw	r24, 0x01	; 1
 2d4:	66 e0       	ldi	r22, 0x06	; 6
 2d6:	70 e0       	ldi	r23, 0x00	; 0
 2d8:	01 d1       	rcall	.+514    	; 0x4dc <__divmodhi4>
 2da:	90 93 19 01 	sts	0x0119, r25	; 0x800119 <func_state+0x1>
 2de:	80 93 18 01 	sts	0x0118, r24	; 0x800118 <func_state>
 2e2:	08 95       	ret

000002e4 <led_flower_on>:
 2e4:	80 91 1a 01 	lds	r24, 0x011A	; 0x80011a <msec_count>
 2e8:	90 91 1b 01 	lds	r25, 0x011B	; 0x80011b <msec_count+0x1>
 2ec:	a0 91 1c 01 	lds	r26, 0x011C	; 0x80011c <msec_count+0x2>
 2f0:	b0 91 1d 01 	lds	r27, 0x011D	; 0x80011d <msec_count+0x3>
 2f4:	84 36       	cpi	r24, 0x64	; 100
 2f6:	91 05       	cpc	r25, r1
 2f8:	a1 05       	cpc	r26, r1
 2fa:	b1 05       	cpc	r27, r1
 2fc:	08 f4       	brcc	.+2      	; 0x300 <led_flower_on+0x1c>
 2fe:	49 c0       	rjmp	.+146    	; 0x392 <led_flower_on+0xae>
 300:	10 92 1a 01 	sts	0x011A, r1	; 0x80011a <msec_count>
 304:	10 92 1b 01 	sts	0x011B, r1	; 0x80011b <msec_count+0x1>
 308:	10 92 1c 01 	sts	0x011C, r1	; 0x80011c <msec_count+0x2>
 30c:	10 92 1d 01 	sts	0x011D, r1	; 0x80011d <msec_count+0x3>
 310:	80 91 0e 01 	lds	r24, 0x010E	; 0x80010e <i.1785>
 314:	90 91 0f 01 	lds	r25, 0x010F	; 0x80010f <i.1785+0x1>
 318:	89 2b       	or	r24, r25
 31a:	09 f4       	brne	.+2      	; 0x31e <led_flower_on+0x3a>
 31c:	1b ba       	out	0x1b, r1	; 27
 31e:	4b b3       	in	r20, 0x1b	; 27
 320:	20 91 0e 01 	lds	r18, 0x010E	; 0x80010e <i.1785>
 324:	30 91 0f 01 	lds	r19, 0x010F	; 0x80010f <i.1785+0x1>
 328:	63 e0       	ldi	r22, 0x03	; 3
 32a:	70 e0       	ldi	r23, 0x00	; 0
 32c:	62 1b       	sub	r22, r18
 32e:	73 0b       	sbc	r23, r19
 330:	81 e0       	ldi	r24, 0x01	; 1
 332:	90 e0       	ldi	r25, 0x00	; 0
 334:	fc 01       	movw	r30, r24
 336:	02 c0       	rjmp	.+4      	; 0x33c <led_flower_on+0x58>
 338:	ee 0f       	add	r30, r30
 33a:	ff 1f       	adc	r31, r31
 33c:	6a 95       	dec	r22
 33e:	e2 f7       	brpl	.-8      	; 0x338 <led_flower_on+0x54>
 340:	2c 5f       	subi	r18, 0xFC	; 252
 342:	3f 4f       	sbci	r19, 0xFF	; 255
 344:	02 c0       	rjmp	.+4      	; 0x34a <led_flower_on+0x66>
 346:	88 0f       	add	r24, r24
 348:	99 1f       	adc	r25, r25
 34a:	2a 95       	dec	r18
 34c:	e2 f7       	brpl	.-8      	; 0x346 <led_flower_on+0x62>
 34e:	8e 2b       	or	r24, r30
 350:	84 2b       	or	r24, r20
 352:	8b bb       	out	0x1b, r24	; 27
 354:	80 91 0e 01 	lds	r24, 0x010E	; 0x80010e <i.1785>
 358:	90 91 0f 01 	lds	r25, 0x010F	; 0x80010f <i.1785+0x1>
 35c:	01 96       	adiw	r24, 0x01	; 1
 35e:	83 70       	andi	r24, 0x03	; 3
 360:	90 78       	andi	r25, 0x80	; 128
 362:	99 23       	and	r25, r25
 364:	24 f4       	brge	.+8      	; 0x36e <led_flower_on+0x8a>
 366:	01 97       	sbiw	r24, 0x01	; 1
 368:	8c 6f       	ori	r24, 0xFC	; 252
 36a:	9f 6f       	ori	r25, 0xFF	; 255
 36c:	01 96       	adiw	r24, 0x01	; 1
 36e:	90 93 0f 01 	sts	0x010F, r25	; 0x80010f <i.1785+0x1>
 372:	80 93 0e 01 	sts	0x010E, r24	; 0x80010e <i.1785>
 376:	89 2b       	or	r24, r25
 378:	61 f4       	brne	.+24     	; 0x392 <led_flower_on+0xae>
 37a:	80 91 18 01 	lds	r24, 0x0118	; 0x800118 <func_state>
 37e:	90 91 19 01 	lds	r25, 0x0119	; 0x800119 <func_state+0x1>
 382:	01 96       	adiw	r24, 0x01	; 1
 384:	66 e0       	ldi	r22, 0x06	; 6
 386:	70 e0       	ldi	r23, 0x00	; 0
 388:	a9 d0       	rcall	.+338    	; 0x4dc <__divmodhi4>
 38a:	90 93 19 01 	sts	0x0119, r25	; 0x800119 <func_state+0x1>
 38e:	80 93 18 01 	sts	0x0118, r24	; 0x800118 <func_state>
 392:	08 95       	ret

00000394 <led_flower_off>:
 394:	80 91 1a 01 	lds	r24, 0x011A	; 0x80011a <msec_count>
 398:	90 91 1b 01 	lds	r25, 0x011B	; 0x80011b <msec_count+0x1>
 39c:	a0 91 1c 01 	lds	r26, 0x011C	; 0x80011c <msec_count+0x2>
 3a0:	b0 91 1d 01 	lds	r27, 0x011D	; 0x80011d <msec_count+0x3>
 3a4:	84 36       	cpi	r24, 0x64	; 100
 3a6:	91 05       	cpc	r25, r1
 3a8:	a1 05       	cpc	r26, r1
 3aa:	b1 05       	cpc	r27, r1
 3ac:	08 f4       	brcc	.+2      	; 0x3b0 <led_flower_off+0x1c>
 3ae:	49 c0       	rjmp	.+146    	; 0x442 <__LOCK_REGION_LENGTH__+0x42>
 3b0:	10 92 1a 01 	sts	0x011A, r1	; 0x80011a <msec_count>
 3b4:	10 92 1b 01 	sts	0x011B, r1	; 0x80011b <msec_count+0x1>
 3b8:	10 92 1c 01 	sts	0x011C, r1	; 0x80011c <msec_count+0x2>
 3bc:	10 92 1d 01 	sts	0x011D, r1	; 0x80011d <msec_count+0x3>
 3c0:	80 91 0c 01 	lds	r24, 0x010C	; 0x80010c <__data_end>
 3c4:	90 91 0d 01 	lds	r25, 0x010D	; 0x80010d <__data_end+0x1>
 3c8:	89 2b       	or	r24, r25
 3ca:	11 f4       	brne	.+4      	; 0x3d0 <led_flower_off+0x3c>
 3cc:	8f ef       	ldi	r24, 0xFF	; 255
 3ce:	8b bb       	out	0x1b, r24	; 27
 3d0:	2b b3       	in	r18, 0x1b	; 27
 3d2:	60 91 0c 01 	lds	r22, 0x010C	; 0x80010c <__data_end>
 3d6:	70 91 0d 01 	lds	r23, 0x010D	; 0x80010d <__data_end+0x1>
 3da:	47 e0       	ldi	r20, 0x07	; 7
 3dc:	50 e0       	ldi	r21, 0x00	; 0
 3de:	46 1b       	sub	r20, r22
 3e0:	57 0b       	sbc	r21, r23
 3e2:	81 e0       	ldi	r24, 0x01	; 1
 3e4:	90 e0       	ldi	r25, 0x00	; 0
 3e6:	fc 01       	movw	r30, r24
 3e8:	02 c0       	rjmp	.+4      	; 0x3ee <led_flower_off+0x5a>
 3ea:	ee 0f       	add	r30, r30
 3ec:	ff 1f       	adc	r31, r31
 3ee:	4a 95       	dec	r20
 3f0:	e2 f7       	brpl	.-8      	; 0x3ea <led_flower_off+0x56>
 3f2:	02 c0       	rjmp	.+4      	; 0x3f8 <led_flower_off+0x64>
 3f4:	88 0f       	add	r24, r24
 3f6:	99 1f       	adc	r25, r25
 3f8:	6a 95       	dec	r22
 3fa:	e2 f7       	brpl	.-8      	; 0x3f4 <led_flower_off+0x60>
 3fc:	8e 2b       	or	r24, r30
 3fe:	80 95       	com	r24
 400:	82 23       	and	r24, r18
 402:	8b bb       	out	0x1b, r24	; 27
 404:	80 91 0c 01 	lds	r24, 0x010C	; 0x80010c <__data_end>
 408:	90 91 0d 01 	lds	r25, 0x010D	; 0x80010d <__data_end+0x1>
 40c:	01 96       	adiw	r24, 0x01	; 1
 40e:	83 70       	andi	r24, 0x03	; 3
 410:	90 78       	andi	r25, 0x80	; 128
 412:	99 23       	and	r25, r25
 414:	24 f4       	brge	.+8      	; 0x41e <__LOCK_REGION_LENGTH__+0x1e>
 416:	01 97       	sbiw	r24, 0x01	; 1
 418:	8c 6f       	ori	r24, 0xFC	; 252
 41a:	9f 6f       	ori	r25, 0xFF	; 255
 41c:	01 96       	adiw	r24, 0x01	; 1
 41e:	90 93 0d 01 	sts	0x010D, r25	; 0x80010d <__data_end+0x1>
 422:	80 93 0c 01 	sts	0x010C, r24	; 0x80010c <__data_end>
 426:	89 2b       	or	r24, r25
 428:	61 f4       	brne	.+24     	; 0x442 <__LOCK_REGION_LENGTH__+0x42>
 42a:	80 91 18 01 	lds	r24, 0x0118	; 0x800118 <func_state>
 42e:	90 91 19 01 	lds	r25, 0x0119	; 0x800119 <func_state+0x1>
 432:	01 96       	adiw	r24, 0x01	; 1
 434:	66 e0       	ldi	r22, 0x06	; 6
 436:	70 e0       	ldi	r23, 0x00	; 0
 438:	51 d0       	rcall	.+162    	; 0x4dc <__divmodhi4>
 43a:	90 93 19 01 	sts	0x0119, r25	; 0x800119 <func_state+0x1>
 43e:	80 93 18 01 	sts	0x0118, r24	; 0x800118 <func_state>
 442:	08 95       	ret

00000444 <init_led>:
 444:	8f ef       	ldi	r24, 0xFF	; 255
 446:	8a bb       	out	0x1a, r24	; 26
 448:	1b ba       	out	0x1b, r1	; 27
 44a:	08 95       	ret

0000044c <led_all_off>:
}

void led_all_off(void)
{
	PORTA=0x00;
 44c:	1b ba       	out	0x1b, r1	; 27
 44e:	08 95       	ret

00000450 <led_main>:
extern volatile uint32_t msec_count;

int led_main(void)
{
	uint8_t led_toggle = 0;
	init_led();
 450:	f9 df       	rcall	.-14     	; 0x444 <init_led>
	led_all_off();
 452:	fc df       	rcall	.-8      	; 0x44c <led_all_off>
 454:	e0 91 18 01 	lds	r30, 0x0118	; 0x800118 <func_state>
	
	while(1)
	{
#if 1
		fp[func_state]();
 458:	f0 91 19 01 	lds	r31, 0x0119	; 0x800119 <func_state+0x1>
 45c:	ee 0f       	add	r30, r30
 45e:	ff 1f       	adc	r31, r31
 460:	e0 50       	subi	r30, 0x00	; 0
 462:	ff 4f       	sbci	r31, 0xFF	; 255
 464:	01 90       	ld	r0, Z+
 466:	f0 81       	ld	r31, Z
 468:	e0 2d       	mov	r30, r0
 46a:	09 95       	icall
 46c:	f3 cf       	rjmp	.-26     	; 0x454 <led_main+0x4>

0000046e <__vector_16>:
 46e:	1f 92       	push	r1
TIMER0_OVF_vect : Timer 0 Overflow INT가 발생이되면 이곳으로 진입함.
250개 펄스를 Count (1ms) 하면 이곳으로 자동 진입한다.
ISR은 가능한 짧게 작성한다.
*/
ISR(TIMER0_OVF_vect)
{
 470:	0f 92       	push	r0
 472:	0f b6       	in	r0, 0x3f	; 63
 474:	0f 92       	push	r0
 476:	11 24       	eor	r1, r1
 478:	8f 93       	push	r24
 47a:	9f 93       	push	r25
 47c:	af 93       	push	r26
 47e:	bf 93       	push	r27
	TCNT0 = 6; // TCNT0가 6부터 256이 되는 순간이 250개 펄스를 카운트하게 된다.
 480:	86 e0       	ldi	r24, 0x06	; 6
 482:	82 bf       	out	0x32, r24	; 50
	msec_count++; // 1ms count
 484:	80 91 1a 01 	lds	r24, 0x011A	; 0x80011a <msec_count>
 488:	90 91 1b 01 	lds	r25, 0x011B	; 0x80011b <msec_count+0x1>
 48c:	a0 91 1c 01 	lds	r26, 0x011C	; 0x80011c <msec_count+0x2>
 490:	b0 91 1d 01 	lds	r27, 0x011D	; 0x80011d <msec_count+0x3>
 494:	01 96       	adiw	r24, 0x01	; 1
 496:	a1 1d       	adc	r26, r1
 498:	b1 1d       	adc	r27, r1
 49a:	80 93 1a 01 	sts	0x011A, r24	; 0x80011a <msec_count>
 49e:	90 93 1b 01 	sts	0x011B, r25	; 0x80011b <msec_count+0x1>
 4a2:	a0 93 1c 01 	sts	0x011C, r26	; 0x80011c <msec_count+0x2>
 4a6:	b0 93 1d 01 	sts	0x011D, r27	; 0x80011d <msec_count+0x3>
}
 4aa:	bf 91       	pop	r27
 4ac:	af 91       	pop	r26
 4ae:	9f 91       	pop	r25
 4b0:	8f 91       	pop	r24
 4b2:	0f 90       	pop	r0
 4b4:	0f be       	out	0x3f, r0	; 63
 4b6:	0f 90       	pop	r0
 4b8:	1f 90       	pop	r1
 4ba:	18 95       	reti

000004bc <init_timer0>:
		0.004ms X 256EA ==> 1.024ms
		0.004ms X 250EA ==> 1ms
*/
void init_timer0(void)
{
	TCNT0 = 6; // TCNT0가 6부터 256이 되는 순간이 250개 펄스를 카운트하게 된다.
 4bc:	86 e0       	ldi	r24, 0x06	; 6
 4be:	82 bf       	out	0x32, r24	; 50
	
	TCCR0 &= ~(1 << CS02 | 1 << CS01 | 1 << CS00); // 0분주 초기화
 4c0:	83 b7       	in	r24, 0x33	; 51
 4c2:	88 7f       	andi	r24, 0xF8	; 248
 4c4:	83 bf       	out	0x33, r24	; 51
	TCCR0 |= 1 << CS02 | 0 << CS01 | 0 << CS00; //64분주 세팅
 4c6:	83 b7       	in	r24, 0x33	; 51
 4c8:	84 60       	ori	r24, 0x04	; 4
 4ca:	83 bf       	out	0x33, r24	; 51
	TIMSK |= 1 << TOIE0; // 오버플로 인터럽트
 4cc:	87 b7       	in	r24, 0x37	; 55
 4ce:	81 60       	ori	r24, 0x01	; 1
 4d0:	87 bf       	out	0x37, r24	; 55
	sei(); // 전역 interrupt 허용
 4d2:	78 94       	sei
 4d4:	08 95       	ret

000004d6 <main>:

void init_timer0(void);

int main(void)
{
    init_timer0();
 4d6:	f2 df       	rcall	.-28     	; 0x4bc <init_timer0>
	
	led_main();
 4d8:	bb df       	rcall	.-138    	; 0x450 <led_main>
 4da:	ff cf       	rjmp	.-2      	; 0x4da <main+0x4>

000004dc <__divmodhi4>:
 4dc:	97 fb       	bst	r25, 7
 4de:	07 2e       	mov	r0, r23
 4e0:	16 f4       	brtc	.+4      	; 0x4e6 <__divmodhi4+0xa>
 4e2:	00 94       	com	r0
 4e4:	06 d0       	rcall	.+12     	; 0x4f2 <__divmodhi4_neg1>
 4e6:	77 fd       	sbrc	r23, 7
 4e8:	08 d0       	rcall	.+16     	; 0x4fa <__divmodhi4_neg2>
 4ea:	0b d0       	rcall	.+22     	; 0x502 <__udivmodhi4>
 4ec:	07 fc       	sbrc	r0, 7
 4ee:	05 d0       	rcall	.+10     	; 0x4fa <__divmodhi4_neg2>
 4f0:	3e f4       	brtc	.+14     	; 0x500 <__divmodhi4_exit>

000004f2 <__divmodhi4_neg1>:
 4f2:	90 95       	com	r25
 4f4:	81 95       	neg	r24
 4f6:	9f 4f       	sbci	r25, 0xFF	; 255
 4f8:	08 95       	ret

000004fa <__divmodhi4_neg2>:
 4fa:	70 95       	com	r23
 4fc:	61 95       	neg	r22
 4fe:	7f 4f       	sbci	r23, 0xFF	; 255

00000500 <__divmodhi4_exit>:
 500:	08 95       	ret

00000502 <__udivmodhi4>:
 502:	aa 1b       	sub	r26, r26
 504:	bb 1b       	sub	r27, r27
 506:	51 e1       	ldi	r21, 0x11	; 17
 508:	07 c0       	rjmp	.+14     	; 0x518 <__udivmodhi4_ep>

0000050a <__udivmodhi4_loop>:
 50a:	aa 1f       	adc	r26, r26
 50c:	bb 1f       	adc	r27, r27
 50e:	a6 17       	cp	r26, r22
 510:	b7 07       	cpc	r27, r23
 512:	10 f0       	brcs	.+4      	; 0x518 <__udivmodhi4_ep>
 514:	a6 1b       	sub	r26, r22
 516:	b7 0b       	sbc	r27, r23

00000518 <__udivmodhi4_ep>:
 518:	88 1f       	adc	r24, r24
 51a:	99 1f       	adc	r25, r25
 51c:	5a 95       	dec	r21
 51e:	a9 f7       	brne	.-22     	; 0x50a <__udivmodhi4_loop>
 520:	80 95       	com	r24
 522:	90 95       	com	r25
 524:	bc 01       	movw	r22, r24
 526:	cd 01       	movw	r24, r26
 528:	08 95       	ret

0000052a <_exit>:
 52a:	f8 94       	cli

0000052c <__stop_program>:
 52c:	ff cf       	rjmp	.-2      	; 0x52c <__stop_program>
