
02.FND_CONTROL.elf:     file format elf32-avr

Sections:
Idx Name          Size      VMA       LMA       File off  Algn
  0 .data         0000000c  00800100  0000030e  000003a2  2**0
                  CONTENTS, ALLOC, LOAD, DATA
  1 .text         0000030e  00000000  00000000  00000094  2**1
                  CONTENTS, ALLOC, LOAD, READONLY, CODE
  2 .bss          0000000b  0080010c  0080010c  000003ae  2**0
                  ALLOC
  3 .comment      00000030  00000000  00000000  000003ae  2**0
                  CONTENTS, READONLY
  4 .note.gnu.avr.deviceinfo 00000040  00000000  00000000  000003e0  2**2
                  CONTENTS, READONLY
  5 .debug_aranges 00000050  00000000  00000000  00000420  2**0
                  CONTENTS, READONLY, DEBUGGING
  6 .debug_info   000009d8  00000000  00000000  00000470  2**0
                  CONTENTS, READONLY, DEBUGGING
  7 .debug_abbrev 000008af  00000000  00000000  00000e48  2**0
                  CONTENTS, READONLY, DEBUGGING
  8 .debug_line   0000036b  00000000  00000000  000016f7  2**0
                  CONTENTS, READONLY, DEBUGGING
  9 .debug_frame  00000078  00000000  00000000  00001a64  2**2
                  CONTENTS, READONLY, DEBUGGING
 10 .debug_str    0000045d  00000000  00000000  00001adc  2**0
                  CONTENTS, READONLY, DEBUGGING
 11 .debug_loc    0000008d  00000000  00000000  00001f39  2**0
                  CONTENTS, READONLY, DEBUGGING
 12 .debug_ranges 00000030  00000000  00000000  00001fc6  2**0
                  CONTENTS, READONLY, DEBUGGING

Disassembly of section .text:

00000000 <__vectors>:
   0:	45 c0       	rjmp	.+138    	; 0x8c <__ctors_end>
   2:	00 00       	nop
   4:	60 c0       	rjmp	.+192    	; 0xc6 <__bad_interrupt>
   6:	00 00       	nop
   8:	5e c0       	rjmp	.+188    	; 0xc6 <__bad_interrupt>
   a:	00 00       	nop
   c:	5c c0       	rjmp	.+184    	; 0xc6 <__bad_interrupt>
   e:	00 00       	nop
  10:	5a c0       	rjmp	.+180    	; 0xc6 <__bad_interrupt>
  12:	00 00       	nop
  14:	58 c0       	rjmp	.+176    	; 0xc6 <__bad_interrupt>
  16:	00 00       	nop
  18:	56 c0       	rjmp	.+172    	; 0xc6 <__bad_interrupt>
  1a:	00 00       	nop
  1c:	54 c0       	rjmp	.+168    	; 0xc6 <__bad_interrupt>
  1e:	00 00       	nop
  20:	52 c0       	rjmp	.+164    	; 0xc6 <__bad_interrupt>
  22:	00 00       	nop
  24:	50 c0       	rjmp	.+160    	; 0xc6 <__bad_interrupt>
  26:	00 00       	nop
  28:	4e c0       	rjmp	.+156    	; 0xc6 <__bad_interrupt>
  2a:	00 00       	nop
  2c:	4c c0       	rjmp	.+152    	; 0xc6 <__bad_interrupt>
  2e:	00 00       	nop
  30:	4a c0       	rjmp	.+148    	; 0xc6 <__bad_interrupt>
  32:	00 00       	nop
  34:	48 c0       	rjmp	.+144    	; 0xc6 <__bad_interrupt>
  36:	00 00       	nop
  38:	46 c0       	rjmp	.+140    	; 0xc6 <__bad_interrupt>
  3a:	00 00       	nop
  3c:	44 c0       	rjmp	.+136    	; 0xc6 <__bad_interrupt>
  3e:	00 00       	nop
  40:	42 c0       	rjmp	.+132    	; 0xc6 <__bad_interrupt>
  42:	00 00       	nop
  44:	40 c0       	rjmp	.+128    	; 0xc6 <__bad_interrupt>
  46:	00 00       	nop
  48:	3e c0       	rjmp	.+124    	; 0xc6 <__bad_interrupt>
  4a:	00 00       	nop
  4c:	3c c0       	rjmp	.+120    	; 0xc6 <__bad_interrupt>
  4e:	00 00       	nop
  50:	3a c0       	rjmp	.+116    	; 0xc6 <__bad_interrupt>
  52:	00 00       	nop
  54:	38 c0       	rjmp	.+112    	; 0xc6 <__bad_interrupt>
  56:	00 00       	nop
  58:	36 c0       	rjmp	.+108    	; 0xc6 <__bad_interrupt>
  5a:	00 00       	nop
  5c:	34 c0       	rjmp	.+104    	; 0xc6 <__bad_interrupt>
  5e:	00 00       	nop
  60:	32 c0       	rjmp	.+100    	; 0xc6 <__bad_interrupt>
  62:	00 00       	nop
  64:	30 c0       	rjmp	.+96     	; 0xc6 <__bad_interrupt>
  66:	00 00       	nop
  68:	2e c0       	rjmp	.+92     	; 0xc6 <__bad_interrupt>
  6a:	00 00       	nop
  6c:	2c c0       	rjmp	.+88     	; 0xc6 <__bad_interrupt>
  6e:	00 00       	nop
  70:	2a c0       	rjmp	.+84     	; 0xc6 <__bad_interrupt>
  72:	00 00       	nop
  74:	28 c0       	rjmp	.+80     	; 0xc6 <__bad_interrupt>
  76:	00 00       	nop
  78:	26 c0       	rjmp	.+76     	; 0xc6 <__bad_interrupt>
  7a:	00 00       	nop
  7c:	24 c0       	rjmp	.+72     	; 0xc6 <__bad_interrupt>
  7e:	00 00       	nop
  80:	22 c0       	rjmp	.+68     	; 0xc6 <__bad_interrupt>
  82:	00 00       	nop
  84:	20 c0       	rjmp	.+64     	; 0xc6 <__bad_interrupt>
  86:	00 00       	nop
  88:	1e c0       	rjmp	.+60     	; 0xc6 <__bad_interrupt>
	...

0000008c <__ctors_end>:
  8c:	11 24       	eor	r1, r1
  8e:	1f be       	out	0x3f, r1	; 63
  90:	cf ef       	ldi	r28, 0xFF	; 255
  92:	d0 e1       	ldi	r29, 0x10	; 16
  94:	de bf       	out	0x3e, r29	; 62
  96:	cd bf       	out	0x3d, r28	; 61

00000098 <__do_copy_data>:
  98:	11 e0       	ldi	r17, 0x01	; 1
  9a:	a0 e0       	ldi	r26, 0x00	; 0
  9c:	b1 e0       	ldi	r27, 0x01	; 1
  9e:	ee e0       	ldi	r30, 0x0E	; 14
  a0:	f3 e0       	ldi	r31, 0x03	; 3
  a2:	00 e0       	ldi	r16, 0x00	; 0
  a4:	0b bf       	out	0x3b, r16	; 59
  a6:	02 c0       	rjmp	.+4      	; 0xac <__do_copy_data+0x14>
  a8:	07 90       	elpm	r0, Z+
  aa:	0d 92       	st	X+, r0
  ac:	ac 30       	cpi	r26, 0x0C	; 12
  ae:	b1 07       	cpc	r27, r17
  b0:	d9 f7       	brne	.-10     	; 0xa8 <__do_copy_data+0x10>

000000b2 <__do_clear_bss>:
  b2:	21 e0       	ldi	r18, 0x01	; 1
  b4:	ac e0       	ldi	r26, 0x0C	; 12
  b6:	b1 e0       	ldi	r27, 0x01	; 1
  b8:	01 c0       	rjmp	.+2      	; 0xbc <.do_clear_bss_start>

000000ba <.do_clear_bss_loop>:
  ba:	1d 92       	st	X+, r1

000000bc <.do_clear_bss_start>:
  bc:	a7 31       	cpi	r26, 0x17	; 23
  be:	b2 07       	cpc	r27, r18
  c0:	e1 f7       	brne	.-8      	; 0xba <.do_clear_bss_loop>
  c2:	ff d0       	rcall	.+510    	; 0x2c2 <main>
  c4:	22 c1       	rjmp	.+580    	; 0x30a <_exit>

000000c6 <__bad_interrupt>:
  c6:	9c cf       	rjmp	.-200    	; 0x0 <__vectors>

000000c8 <init_fnd>:
	return 0;
}

void init_fnd(void)
{
	FND_DATA_DDR = 0xff;
  c8:	9f ef       	ldi	r25, 0xFF	; 255
  ca:	94 bb       	out	0x14, r25	; 20
	FND_DIGIT_DDR |= 1 << FND_DIGIT_D1 | 1 << FND_DIGIT_D2 | 1 << FND_DIGIT_D3 | 1 << FND_DIGIT_D4;
  cc:	87 b3       	in	r24, 0x17	; 23
  ce:	80 6f       	ori	r24, 0xF0	; 240
  d0:	87 bb       	out	0x17, r24	; 23
	
	//FND all off
#ifdef COMMON_ANODE
	FND_DATA_PORT = 0xff;
  d2:	95 bb       	out	0x15, r25	; 21
  d4:	08 95       	ret

000000d6 <fnd_display>:
#endif

}

void fnd_display(void)
{
  d6:	cf 93       	push	r28
  d8:	df 93       	push	r29
  da:	cd b7       	in	r28, 0x3d	; 61
  dc:	de b7       	in	r29, 0x3e	; 62
  de:	2b 97       	sbiw	r28, 0x0b	; 11
  e0:	0f b6       	in	r0, 0x3f	; 63
  e2:	f8 94       	cli
  e4:	de bf       	out	0x3e, r29	; 62
  e6:	0f be       	out	0x3f, r0	; 63
  e8:	cd bf       	out	0x3d, r28	; 61
	//분 초 시계를 만들어보자아아..!
#ifdef COMMON_ANODE
	uint8_t fnd_font[] = {0xc0, 0xf9, 0xa4, 0xb0, 0x99, 0x92, 0x82, 0xd8,0x80, 0x98, 0x7f};//0 ~ .
  ea:	8b e0       	ldi	r24, 0x0B	; 11
  ec:	e0 e0       	ldi	r30, 0x00	; 0
  ee:	f1 e0       	ldi	r31, 0x01	; 1
  f0:	de 01       	movw	r26, r28
  f2:	11 96       	adiw	r26, 0x01	; 1
  f4:	01 90       	ld	r0, Z+
  f6:	0d 92       	st	X+, r0
  f8:	8a 95       	dec	r24
  fa:	e1 f7       	brne	.-8      	; 0xf4 <fnd_display+0x1e>
#else	
	uint8_t fnd_font[] = {0x3f, 0x06, 0x5B, 0x4F, 0x66, 0x6d, 0x7d, 0x27, 0x7f, 0x67, 0x80}; //0 ~ .
#endif	
	static int digit_select = 0;
	
	switch(digit_select)
  fc:	80 91 0c 01 	lds	r24, 0x010C	; 0x80010c <__data_end>
 100:	90 91 0d 01 	lds	r25, 0x010D	; 0x80010d <__data_end+0x1>
 104:	81 30       	cpi	r24, 0x01	; 1
 106:	91 05       	cpc	r25, r1
 108:	19 f1       	breq	.+70     	; 0x150 <fnd_display+0x7a>
 10a:	1c f4       	brge	.+6      	; 0x112 <fnd_display+0x3c>
 10c:	89 2b       	or	r24, r25
 10e:	41 f0       	breq	.+16     	; 0x120 <fnd_display+0x4a>
 110:	7b c0       	rjmp	.+246    	; 0x208 <fnd_display+0x132>
 112:	82 30       	cpi	r24, 0x02	; 2
 114:	91 05       	cpc	r25, r1
 116:	d9 f1       	breq	.+118    	; 0x18e <fnd_display+0xb8>
 118:	03 97       	sbiw	r24, 0x03	; 3
 11a:	09 f4       	brne	.+2      	; 0x11e <fnd_display+0x48>
 11c:	57 c0       	rjmp	.+174    	; 0x1cc <fnd_display+0xf6>
 11e:	74 c0       	rjmp	.+232    	; 0x208 <fnd_display+0x132>
	{
		case 0:
#ifdef COMMON_ANODE
		FND_DIGIT_PORT = 0x80;
 120:	80 e8       	ldi	r24, 0x80	; 128
 122:	88 bb       	out	0x18, r24	; 24
#else
		FND_DIGIT_PORT = 0x7f; // ~0x80
#endif	
		FND_DATA_PORT = fnd_font[sec_count%10];	
 124:	60 91 0f 01 	lds	r22, 0x010F	; 0x80010f <sec_count>
 128:	70 91 10 01 	lds	r23, 0x0110	; 0x800110 <sec_count+0x1>
 12c:	80 91 11 01 	lds	r24, 0x0111	; 0x800111 <sec_count+0x2>
 130:	90 91 12 01 	lds	r25, 0x0112	; 0x800112 <sec_count+0x3>
 134:	2a e0       	ldi	r18, 0x0A	; 10
 136:	30 e0       	ldi	r19, 0x00	; 0
 138:	40 e0       	ldi	r20, 0x00	; 0
 13a:	50 e0       	ldi	r21, 0x00	; 0
 13c:	c4 d0       	rcall	.+392    	; 0x2c6 <__udivmodsi4>
 13e:	e1 e0       	ldi	r30, 0x01	; 1
 140:	f0 e0       	ldi	r31, 0x00	; 0
 142:	ec 0f       	add	r30, r28
 144:	fd 1f       	adc	r31, r29
 146:	e6 0f       	add	r30, r22
 148:	f7 1f       	adc	r31, r23
 14a:	80 81       	ld	r24, Z
 14c:	85 bb       	out	0x15, r24	; 21
		break;
 14e:	5c c0       	rjmp	.+184    	; 0x208 <fnd_display+0x132>
		
		case 1:
#ifdef COMMON_ANODE
		FND_DIGIT_PORT = 0x40;
 150:	80 e4       	ldi	r24, 0x40	; 64
 152:	88 bb       	out	0x18, r24	; 24
#else
		FND_DIGIT_PORT = ~0x40;
#endif
		FND_DATA_PORT = fnd_font[sec_count/10%6];
 154:	60 91 0f 01 	lds	r22, 0x010F	; 0x80010f <sec_count>
 158:	70 91 10 01 	lds	r23, 0x0110	; 0x800110 <sec_count+0x1>
 15c:	80 91 11 01 	lds	r24, 0x0111	; 0x800111 <sec_count+0x2>
 160:	90 91 12 01 	lds	r25, 0x0112	; 0x800112 <sec_count+0x3>
 164:	2a e0       	ldi	r18, 0x0A	; 10
 166:	30 e0       	ldi	r19, 0x00	; 0
 168:	40 e0       	ldi	r20, 0x00	; 0
 16a:	50 e0       	ldi	r21, 0x00	; 0
 16c:	ac d0       	rcall	.+344    	; 0x2c6 <__udivmodsi4>
 16e:	ca 01       	movw	r24, r20
 170:	b9 01       	movw	r22, r18
 172:	26 e0       	ldi	r18, 0x06	; 6
 174:	30 e0       	ldi	r19, 0x00	; 0
 176:	40 e0       	ldi	r20, 0x00	; 0
 178:	50 e0       	ldi	r21, 0x00	; 0
 17a:	a5 d0       	rcall	.+330    	; 0x2c6 <__udivmodsi4>
 17c:	e1 e0       	ldi	r30, 0x01	; 1
 17e:	f0 e0       	ldi	r31, 0x00	; 0
 180:	ec 0f       	add	r30, r28
 182:	fd 1f       	adc	r31, r29
 184:	e6 0f       	add	r30, r22
 186:	f7 1f       	adc	r31, r23
 188:	80 81       	ld	r24, Z
 18a:	85 bb       	out	0x15, r24	; 21
		break;
 18c:	3d c0       	rjmp	.+122    	; 0x208 <fnd_display+0x132>
		
		case 2:
#ifdef COMMON_ANODE
		FND_DIGIT_PORT = 0x20;
 18e:	80 e2       	ldi	r24, 0x20	; 32
 190:	88 bb       	out	0x18, r24	; 24
#else
		FND_DIGIT_PORT = ~0x20;
#endif
		FND_DATA_PORT = fnd_font[sec_count/60%10];
 192:	60 91 0f 01 	lds	r22, 0x010F	; 0x80010f <sec_count>
 196:	70 91 10 01 	lds	r23, 0x0110	; 0x800110 <sec_count+0x1>
 19a:	80 91 11 01 	lds	r24, 0x0111	; 0x800111 <sec_count+0x2>
 19e:	90 91 12 01 	lds	r25, 0x0112	; 0x800112 <sec_count+0x3>
 1a2:	2c e3       	ldi	r18, 0x3C	; 60
 1a4:	30 e0       	ldi	r19, 0x00	; 0
 1a6:	40 e0       	ldi	r20, 0x00	; 0
 1a8:	50 e0       	ldi	r21, 0x00	; 0
 1aa:	8d d0       	rcall	.+282    	; 0x2c6 <__udivmodsi4>
 1ac:	ca 01       	movw	r24, r20
 1ae:	b9 01       	movw	r22, r18
 1b0:	2a e0       	ldi	r18, 0x0A	; 10
 1b2:	30 e0       	ldi	r19, 0x00	; 0
 1b4:	40 e0       	ldi	r20, 0x00	; 0
 1b6:	50 e0       	ldi	r21, 0x00	; 0
 1b8:	86 d0       	rcall	.+268    	; 0x2c6 <__udivmodsi4>
 1ba:	e1 e0       	ldi	r30, 0x01	; 1
 1bc:	f0 e0       	ldi	r31, 0x00	; 0
 1be:	ec 0f       	add	r30, r28
 1c0:	fd 1f       	adc	r31, r29
 1c2:	e6 0f       	add	r30, r22
 1c4:	f7 1f       	adc	r31, r23
 1c6:	80 81       	ld	r24, Z
 1c8:	85 bb       	out	0x15, r24	; 21
		break;
 1ca:	1e c0       	rjmp	.+60     	; 0x208 <fnd_display+0x132>
		
		case 3:
#ifdef COMMON_ANODE
		FND_DIGIT_PORT = 0x10;
 1cc:	80 e1       	ldi	r24, 0x10	; 16
 1ce:	88 bb       	out	0x18, r24	; 24
#else
		FND_DIGIT_PORT = ~0x10;
#endif
		FND_DATA_PORT = fnd_font[sec_count/600%6];
 1d0:	60 91 0f 01 	lds	r22, 0x010F	; 0x80010f <sec_count>
 1d4:	70 91 10 01 	lds	r23, 0x0110	; 0x800110 <sec_count+0x1>
 1d8:	80 91 11 01 	lds	r24, 0x0111	; 0x800111 <sec_count+0x2>
 1dc:	90 91 12 01 	lds	r25, 0x0112	; 0x800112 <sec_count+0x3>
 1e0:	28 e5       	ldi	r18, 0x58	; 88
 1e2:	32 e0       	ldi	r19, 0x02	; 2
 1e4:	40 e0       	ldi	r20, 0x00	; 0
 1e6:	50 e0       	ldi	r21, 0x00	; 0
 1e8:	6e d0       	rcall	.+220    	; 0x2c6 <__udivmodsi4>
 1ea:	ca 01       	movw	r24, r20
 1ec:	b9 01       	movw	r22, r18
 1ee:	26 e0       	ldi	r18, 0x06	; 6
 1f0:	30 e0       	ldi	r19, 0x00	; 0
 1f2:	40 e0       	ldi	r20, 0x00	; 0
 1f4:	50 e0       	ldi	r21, 0x00	; 0
 1f6:	67 d0       	rcall	.+206    	; 0x2c6 <__udivmodsi4>
 1f8:	e1 e0       	ldi	r30, 0x01	; 1
 1fa:	f0 e0       	ldi	r31, 0x00	; 0
 1fc:	ec 0f       	add	r30, r28
 1fe:	fd 1f       	adc	r31, r29
 200:	e6 0f       	add	r30, r22
 202:	f7 1f       	adc	r31, r23
 204:	80 81       	ld	r24, Z
 206:	85 bb       	out	0x15, r24	; 21
		break;
		
		default:
		break;
	}
	digit_select = (digit_select + 1) % 4;
 208:	80 91 0c 01 	lds	r24, 0x010C	; 0x80010c <__data_end>
 20c:	90 91 0d 01 	lds	r25, 0x010D	; 0x80010d <__data_end+0x1>
 210:	01 96       	adiw	r24, 0x01	; 1
 212:	83 70       	andi	r24, 0x03	; 3
 214:	90 78       	andi	r25, 0x80	; 128
 216:	99 23       	and	r25, r25
 218:	24 f4       	brge	.+8      	; 0x222 <fnd_display+0x14c>
 21a:	01 97       	sbiw	r24, 0x01	; 1
 21c:	8c 6f       	ori	r24, 0xFC	; 252
 21e:	9f 6f       	ori	r25, 0xFF	; 255
 220:	01 96       	adiw	r24, 0x01	; 1
 222:	90 93 0d 01 	sts	0x010D, r25	; 0x80010d <__data_end+0x1>
 226:	80 93 0c 01 	sts	0x010C, r24	; 0x80010c <__data_end>
	
 22a:	2b 96       	adiw	r28, 0x0b	; 11
 22c:	0f b6       	in	r0, 0x3f	; 63
 22e:	f8 94       	cli
 230:	de bf       	out	0x3e, r29	; 62
 232:	0f be       	out	0x3f, r0	; 63
 234:	cd bf       	out	0x3d, r28	; 61
 236:	df 91       	pop	r29
 238:	cf 91       	pop	r28
 23a:	08 95       	ret

0000023c <fnd_main>:
uint32_t sec_count = 0; //sec를 재는 count
uint8_t	dot_display = 0;

int fnd_main(void)
{
	init_fnd();
 23c:	45 df       	rcall	.-374    	; 0xc8 <init_fnd>
	
	while(1)
	{
		fnd_display();
 23e:	4b df       	rcall	.-362    	; 0xd6 <fnd_display>
 240:	8f e9       	ldi	r24, 0x9F	; 159
	#else
		//round up by default
		__ticks_dc = (uint32_t)(ceil(fabs(__tmp)));
	#endif

	__builtin_avr_delay_cycles(__ticks_dc);
 242:	9f e0       	ldi	r25, 0x0F	; 15
 244:	01 97       	sbiw	r24, 0x01	; 1
 246:	f1 f7       	brne	.-4      	; 0x244 <fnd_main+0x8>
 248:	00 c0       	rjmp	.+0      	; 0x24a <fnd_main+0xe>
 24a:	00 00       	nop
 24c:	80 91 13 01 	lds	r24, 0x0113	; 0x800113 <ms_count>
		_delay_ms(1);
		ms_count++;
 250:	90 91 14 01 	lds	r25, 0x0114	; 0x800114 <ms_count+0x1>
 254:	a0 91 15 01 	lds	r26, 0x0115	; 0x800115 <ms_count+0x2>
 258:	b0 91 16 01 	lds	r27, 0x0116	; 0x800116 <ms_count+0x3>
 25c:	01 96       	adiw	r24, 0x01	; 1
 25e:	a1 1d       	adc	r26, r1
 260:	b1 1d       	adc	r27, r1
 262:	80 93 13 01 	sts	0x0113, r24	; 0x800113 <ms_count>
 266:	90 93 14 01 	sts	0x0114, r25	; 0x800114 <ms_count+0x1>
 26a:	a0 93 15 01 	sts	0x0115, r26	; 0x800115 <ms_count+0x2>
 26e:	b0 93 16 01 	sts	0x0116, r27	; 0x800116 <ms_count+0x3>
 272:	88 3e       	cpi	r24, 0xE8	; 232
		if(ms_count >= 1000)
 274:	93 40       	sbci	r25, 0x03	; 3
 276:	a1 05       	cpc	r26, r1
 278:	b1 05       	cpc	r27, r1
 27a:	08 f3       	brcs	.-62     	; 0x23e <fnd_main+0x2>
 27c:	10 92 13 01 	sts	0x0113, r1	; 0x800113 <ms_count>
		{
			ms_count = 0;
 280:	10 92 14 01 	sts	0x0114, r1	; 0x800114 <ms_count+0x1>
 284:	10 92 15 01 	sts	0x0115, r1	; 0x800115 <ms_count+0x2>
 288:	10 92 16 01 	sts	0x0116, r1	; 0x800116 <ms_count+0x3>
 28c:	80 91 0f 01 	lds	r24, 0x010F	; 0x80010f <sec_count>
			sec_count++;
 290:	90 91 10 01 	lds	r25, 0x0110	; 0x800110 <sec_count+0x1>
 294:	a0 91 11 01 	lds	r26, 0x0111	; 0x800111 <sec_count+0x2>
 298:	b0 91 12 01 	lds	r27, 0x0112	; 0x800112 <sec_count+0x3>
 29c:	01 96       	adiw	r24, 0x01	; 1
 29e:	a1 1d       	adc	r26, r1
 2a0:	b1 1d       	adc	r27, r1
 2a2:	80 93 0f 01 	sts	0x010F, r24	; 0x80010f <sec_count>
 2a6:	90 93 10 01 	sts	0x0110, r25	; 0x800110 <sec_count+0x1>
 2aa:	a0 93 11 01 	sts	0x0111, r26	; 0x800111 <sec_count+0x2>
 2ae:	b0 93 12 01 	sts	0x0112, r27	; 0x800112 <sec_count+0x3>
 2b2:	81 e0       	ldi	r24, 0x01	; 1
			dot_display = !dot_display;
 2b4:	90 91 0e 01 	lds	r25, 0x010E	; 0x80010e <dot_display>
 2b8:	91 11       	cpse	r25, r1
 2ba:	80 e0       	ldi	r24, 0x00	; 0
 2bc:	80 93 0e 01 	sts	0x010E, r24	; 0x80010e <dot_display>
 2c0:	be cf       	rjmp	.-132    	; 0x23e <fnd_main+0x2>

000002c2 <main>:
extern int fnd_main(void);

int main(void)
{
    
	fnd_main();
 2c2:	bc df       	rcall	.-136    	; 0x23c <fnd_main>
 2c4:	ff cf       	rjmp	.-2      	; 0x2c4 <main+0x2>

000002c6 <__udivmodsi4>:
 2c6:	a1 e2       	ldi	r26, 0x21	; 33
 2c8:	1a 2e       	mov	r1, r26
 2ca:	aa 1b       	sub	r26, r26
 2cc:	bb 1b       	sub	r27, r27
 2ce:	fd 01       	movw	r30, r26
 2d0:	0d c0       	rjmp	.+26     	; 0x2ec <__udivmodsi4_ep>

000002d2 <__udivmodsi4_loop>:
 2d2:	aa 1f       	adc	r26, r26
 2d4:	bb 1f       	adc	r27, r27
 2d6:	ee 1f       	adc	r30, r30
 2d8:	ff 1f       	adc	r31, r31
 2da:	a2 17       	cp	r26, r18
 2dc:	b3 07       	cpc	r27, r19
 2de:	e4 07       	cpc	r30, r20
 2e0:	f5 07       	cpc	r31, r21
 2e2:	20 f0       	brcs	.+8      	; 0x2ec <__udivmodsi4_ep>
 2e4:	a2 1b       	sub	r26, r18
 2e6:	b3 0b       	sbc	r27, r19
 2e8:	e4 0b       	sbc	r30, r20
 2ea:	f5 0b       	sbc	r31, r21

000002ec <__udivmodsi4_ep>:
 2ec:	66 1f       	adc	r22, r22
 2ee:	77 1f       	adc	r23, r23
 2f0:	88 1f       	adc	r24, r24
 2f2:	99 1f       	adc	r25, r25
 2f4:	1a 94       	dec	r1
 2f6:	69 f7       	brne	.-38     	; 0x2d2 <__udivmodsi4_loop>
 2f8:	60 95       	com	r22
 2fa:	70 95       	com	r23
 2fc:	80 95       	com	r24
 2fe:	90 95       	com	r25
 300:	9b 01       	movw	r18, r22
 302:	ac 01       	movw	r20, r24
 304:	bd 01       	movw	r22, r26
 306:	cf 01       	movw	r24, r30
 308:	08 95       	ret

0000030a <_exit>:
 30a:	f8 94       	cli

0000030c <__stop_program>:
 30c:	ff cf       	rjmp	.-2      	; 0x30c <__stop_program>
